(dp0
S'GHT'
p1
(lp2
S'N/A'
p3
asS'Infineon'
p4
(lp5
g3
asS'Usha_Lexus'
p6
(lp7
g3
asS'Dai_Telecom'
p8
(lp9
g3
asS'Emblaze'
p10
(lp11
g3
asS'CoralWeb'
p12
(lp13
g3
asS'KDDI'
p14
(lp15
S'2.2'
p16
ag3
asS'Helio'
p17
(lp18
g3
asS'Ezze'
p19
(lp20
g3
asS'Desktop'
p21
(lp22
g3
asS'Access'
p23
(lp24
g3
asS'Huawei'
p25
(lp26
S'1.5'
p27
ag3
aS'5'
p28
aS'3.1'
p29
aS'2.2'
p30
aS'2.1'
p31
asS'TTPCom'
p32
(lp33
g3
asS'Morange'
p34
(lp35
g3
asS'Smile'
p36
(lp37
g3
asS'O2'
p38
(lp39
S'5.0'
p40
ag3
aS'2003'
p41
aS'5'
p42
aS'6.1'
p43
aS'6'
p44
asS'Vodafone'
p45
(lp46
S'2.1'
p47
aS'5'
p48
ag3
aS'6'
p49
asS'RT'
p50
(lp51
g3
asS'Cricket'
p52
(lp53
g3
asS'Garmin-Asus'
p54
(lp55
S'1.6'
p56
asS'SonyEricsson'
p57
(lp58
S'1.6'
p59
aS'2003'
p60
ag3
aS'2.3'
p61
aS'5'
p62
aS'6.1'
p63
aS'9.4'
p64
aS'2.1'
p65
aS'9.1'
p66
asS'Verizon'
p67
(lp68
S'2.2'
p69
aS'2.1'
p70
aS'2.0'
p71
aS'6.1'
p72
aS'6'
p73
asS'Uriver'
p74
(lp75
g3
asS'Nokia'
p76
(lp77
S'8.1'
p78
aS'8.0'
p79
aS'7.0s'
p80
aS'S3'
p81
ag3
aS'7.0'
p82
aS'6.1'
p83
aS'9.4'
p84
aS'9.1'
p85
aS'9.2'
p86
aS'9.3'
p87
asS'ARCELIK'
p88
(lp89
g3
asS'Zonda'
p90
(lp91
g3
asS'Miracle'
p92
(lp93
g3
asS'Audiovox'
p94
(lp95
S'2003_SE'
p96
ag3
asS'Airness'
p97
(lp98
g3
asS'RIM'
p99
(lp100
S'3.6'
p101
aS'3.7'
p102
aS'3.5'
p103
aS'3.2'
p104
aS'3.3'
p105
aS'6.0'
p106
aS'3.8'
p107
aS'4.5'
p108
aS'4.7'
p109
aS'4.6'
p110
aS'4.1'
p111
aS'4.0'
p112
aS'4.3'
p113
aS'4.2'
p114
aS'1'
p115
aS'2'
p116
aS'5'
p117
aS'5.0'
p118
ag3
aS'4.7.1'
p119
aS'4.1.0'
p120
aS'4.6.1'
p121
aS'4.2.2'
p122
aS'3.2.1'
p123
asS'Lexibook'
p124
(lp125
g3
asS'SPC'
p126
(lp127
g3
asS'Spice'
p128
(lp129
g3
asS'Nexian'
p130
(lp131
g3
asS'VeryKool'
p132
(lp133
g3
asS'UTStarcom'
p134
(lp135
S'5'
p136
ag3
aS'6.1'
p137
aS'6'
p138
asS'Novarra'
p139
(lp140
g3
asS'Micromax'
p141
(lp142
g3
asS'MOBISTEL'
p143
(lp144
g3
asS'BEKO'
p145
(lp146
g3
asS'SlobTrot_Software'
p147
(lp148
g3
asS'HTIL'
p149
(lp150
g3
asS'Sagem'
p151
(lp152
S'2003_SE'
p153
ag3
asS'KDDI-SonyEricsson'
p154
(lp155
g3
asS'XJXN'
p156
(lp157
g3
asS'Vertu'
p158
(lp159
g3
aS'9.3'
p160
asS'Aiko'
p161
(lp162
g3
asS'Ahong'
p163
(lp164
g3
asS'Asus'
p165
(lp166
S'1.6'
p167
aS'6.1'
p168
ag3
aS'5'
p169
aS'7'
p170
aS'6'
p171
aS'2003_SE'
p172
asS'InfoSonics'
p173
(lp174
g3
asS'Velocity_Mobile'
p175
(lp176
S'6.1'
p177
asS'WellcoM'
p178
(lp179
S'1.6'
p180
ag3
asS'i-mobile'
p181
(lp182
g3
asS'KCM'
p183
(lp184
g3
asS'Danger'
p185
(lp186
g3
asS'Venera'
p187
(lp188
g3
asS'CheckCom'
p189
(lp190
g3
asS'Hitachi'
p191
(lp192
g3
asS'Newgen'
p193
(lp194
g3
asS'Itelco'
p195
(lp196
g3
asS'WAPUniverse'
p197
(lp198
g3
asS'ETEN'
p199
(lp200
S'5'
p201
aS'6'
p202
asS'Sharp'
p203
(lp204
S'1.6'
p205
ag3
aS'5'
p206
aS'6.1'
p207
aS'6.0'
p208
aS'2.2'
p209
aS'2.1'
p210
asS'Skybee'
p211
(lp212
g3
asS'Zenithink'
p213
(lp214
S'2.1'
p215
asS'Maxon'
p216
(lp217
g3
asS'BenQ'
p218
(lp219
S'5.0'
p220
aS'2003'
p221
ag3
asS'Gionee'
p222
(lp223
g3
asS'Lemon'
p224
(lp225
g3
asS'Sonim'
p226
(lp227
g3
asS'Techfaith'
p228
(lp229
S'6'
p230
asS'Generic'
p231
(lp232
S'7'
p233
ag3
aS'2003'
p234
aS'6.5'
p235
aS'5'
p236
aS'6.1'
p237
aS'6'
p238
aS'2003_SE'
p239
asS'Grundig'
p240
(lp241
S'5'
p242
ag3
asS'HP'
p243
(lp244
S'Pocket_PC_2002'
p245
aS'6.0'
p246
aS'2003'
p247
aS'5'
p248
aS'6.1'
p249
aS'6'
p250
aS'2003_SE'
p251
asS'KDDI-Toshiba'
p252
(lp253
g3
asS'Nec'
p254
(lp255
S'2.2'
p256
asS'Cincinnati_Bell'
p257
(lp258
S'1.6'
p259
asS'Konka'
p260
(lp261
g3
asS'Lenovo'
p262
(lp263
S'2.3'
p264
aS'1.5'
p265
aS'5'
p266
ag3
aS'6'
p267
asS'Meizu'
p268
(lp269
S'2.2'
p270
asS'Unistar'
p271
(lp272
g3
asS'ModeLabs'
p273
(lp274
g3
asS'Orange'
p275
(lp276
S'2003_SE'
p277
ag3
aS'2003'
p278
aS'5'
p279
aS'6'
p280
aS'Pocket_PC_2002'
p281
asS'Android'
p282
(lp283
S'1.5'
p284
aS'1.6'
p285
aS'1.1'
p286
aS'0.5'
p287
aS'3.0'
p288
aS'2.3'
p289
aS'2.2'
p290
aS'2.1'
p291
aS'2.0'
p292
aS'2.4'
p293
asS'Capitel'
p294
(lp295
g3
asS'Tianyu'
p296
(lp297
g3
asS'.mobi'
p298
(lp299
g3
asS'PCD'
p300
(lp301
g3
asS'Modu'
p302
(lp303
g3
asS'QMobile'
p304
(lp305
g3
asS'W3C'
p306
(lp307
g3
asS'Reporo'
p308
(lp309
g3
asS'Utec'
p310
(lp311
g3
asS'LXE'
p312
(lp313
g3
asS'T-Mobile'
p314
(lp315
S'1.5'
p316
aS'1.6'
p317
aS'1.0'
p318
aS'1.1'
p319
ag3
aS'6.5'
p320
aS'5'
p321
aS'6.1'
p322
aS'6'
p323
aS'2.2'
p324
aS'2.1'
p325
aS'2003_SE'
p326
asS'Amazon'
p327
(lp328
S'2.6.10'
p329
aS'2.0'
p330
aS'2.6'
p331
aS'2.6.22'
p332
asS'Wapsilon'
p333
(lp334
g3
asS'MOMO_Design'
p335
(lp336
g3
asS'Elite'
p337
(lp338
g3
asS'Vodafone_ZTE'
p339
(lp340
g3
asS'Sony'
p341
(lp342
g3
asS'Mitsubishi'
p343
(lp344
g3
asS'Raks'
p345
(lp346
g3
asS'Skyworth'
p347
(lp348
g3
asS'Hummer'
p349
(lp350
g3
asS'Amoi'
p351
(lp352
S'5'
p353
ag3
asS'Motorola'
p354
(lp355
S'1.5'
p356
aS'1.6'
p357
aS'1.0'
p358
aS'3.0'
p359
aS'2.0.1'
p360
aS'2.2.1'
p361
aS'6.1'
p362
aS'6.0'
p363
aS'2.2'
p364
aS'7.0s'
p365
aS'2.1'
p366
aS'2.0'
p367
aS'2.6'
p368
aS'2.4'
p369
aS'2.4.20'
p370
aS'2.6.10'
p371
aS'5'
p372
aS'6'
p373
aS'2003_SE'
p374
aS'9.2'
p375
ag3
aS'Pocket_PC_2002'
p376
aS'2003'
p377
asS'KPT'
p378
(lp379
g3
asS'Samsung'
p380
(lp381
S'1.5'
p382
aS'1.6'
p383
aS'1.0'
p384
aS'3.0'
p385
aS'1.2'
p386
aS'7.0'
p387
aS'6.1'
p388
aS'6.0'
p389
aS'2.3'
p390
aS'7.0s'
p391
aS'2.1'
p392
aS'2.4'
p393
aS'5.0'
p394
aS'4.1'
p395
aS'5'
p396
aS'7'
p397
aS'6'
p398
aS'9.4'
p399
aS'2003_SE'
p400
aS'9.1'
p401
aS'9.2'
p402
aS'2.3.3'
p403
ag3
aS'2.2'
p404
aS'6.5'
p405
asS'Malata'
p406
(lp407
g3
asS'B-Mobile'
p408
(lp409
g3
asS'Robot'
p410
(lp411
g3
asS'UCWEB'
p412
(lp413
g3
asS'MyPhone'
p414
(lp415
g3
asS'ZT'
p416
(lp417
g3
asS'TCL'
p418
(lp419
S'2.2'
p420
ag3
asS'Skyfire'
p421
(lp422
g3
asS'Microsoft'
p423
(lp424
g3
aS'7'
p425
asS'Doris'
p426
(lp427
g3
asS'Bleu'
p428
(lp429
g3
asS'LCT'
p430
(lp431
g3
asS'Vacom'
p432
(lp433
g3
asS'HTC'
p434
(lp435
S'1.5'
p436
aS'1.6'
p437
aS'1.0'
p438
aS'1.1'
p439
aS'2.2.2'
p440
aS'6.5'
p441
aS'2.2.1'
p442
aS'6.1'
p443
aS'6.0'
p444
aS'2.3'
p445
aS'2.2'
p446
aS'2.1'
p447
aS'6.8'
p448
aS'5.0'
p449
aS'5.2'
p450
aS'5'
p451
aS'7'
p452
aS'6'
p453
aS'2003_SE'
p454
ag3
aS'Pocket_PC_2002'
p455
aS'2003'
p456
asS'Ron'
p457
(lp458
g3
asS'Tecno'
p459
(lp460
g3
asS'Openwave'
p461
(lp462
g3
asS'Tinno'
p463
(lp464
g3
asS'i-mate'
p465
(lp466
S'5.0'
p467
aS'2003_SE'
p468
aS'6.0'
p469
aS'5'
p470
aS'6'
p471
asS'Palm'
p472
(lp473
S'1.4.1'
p474
aS'1.0'
p475
aS'1.4.5'
p476
aS'1.2'
p477
aS'1.3'
p478
ag3
aS'1.3.5'
p479
aS'5'
p480
aS'6.1'
p481
aS'6'
p482
aS'1.1'
p483
aS'Albacore'
p484
aS'5.2.8'
p485
aS'1.2.9'
p486
asS'EDL'
p487
(lp488
g3
asS'Acer'
p489
(lp490
S'1.5'
p491
aS'1.6'
p492
aS'3.0'
p493
ag3
aS'6.5'
p494
aS'6.1'
p495
aS'2.2'
p496
aS'2.1'
p497
asS'Lexus'
p498
(lp499
g3
asS'Ericsson'
p500
(lp501
g3
asS'Pirelli-Arcor'
p502
(lp503
g3
asS'Palm_3'
p504
(lp505
g3
asS'Rover'
p506
(lp507
g3
asS'Vibo'
p508
(lp509
S'1.6'
p510
ag3
asS'KDDI-Sanyo'
p511
(lp512
g3
asS'Coolpad'
p513
(lp514
g3
asS'Telecom_Italia'
p515
(lp516
g3
asS'NEC'
p517
(lp518
g3
asS'Yas'
p519
(lp520
g3
asS'UKING'
p521
(lp522
g3
asS'Hisense'
p523
(lp524
g3
asS'Nem'
p525
(lp526
g3
asS'Dallab'
p527
(lp528
S'2003'
p529
asS'Mitac'
p530
(lp531
S'2003'
p532
aS'5'
p533
asS'Compal'
p534
(lp535
g3
asS'SAMART'
p536
(lp537
g3
asS'VK_Mobile'
p538
(lp539
g3
asS'Emobile'
p540
(lp541
S'6.1'
p542
aS'6'
p543
asS'Hei'
p544
(lp545
g3
asS'Haier'
p546
(lp547
g3
asS'Apanda'
p548
(lp549
S'1.6'
p550
asS'INNO'
p551
(lp552
g3
asS'SmartTrust'
p553
(lp554
g3
asS'Klondike'
p555
(lp556
g3
asS'Psion'
p557
(lp558
g3
asS'Siemens'
p559
(lp560
S'2003_SE'
p561
aS'Pocket_PC_2002'
p562
ag3
aS'6.1'
p563
asS'ViewSonic'
p564
(lp565
S'2.2'
p566
asS'EZIO'
p567
(lp568
g3
asS'SK_Telesys'
p569
(lp570
S'2.2'
p571
asS'Kisen'
p572
(lp573
g3
asS'Toshiba'
p574
(lp575
g3
aS'5'
p576
aS'6.1'
p577
aS'6'
p578
aS'2.2'
p579
aS'2.1'
p580
asS'WinWAP_Technologies'
p581
(lp582
g3
asS'SavaJe'
p583
(lp584
g3
asS'Coby'
p585
(lp586
S'2.1'
p587
asS'NGM'
p588
(lp589
g3
asS'Kejian'
p590
(lp591
g3
asS'iKoMo'
p592
(lp593
g3
asS'Bird'
p594
(lp595
g3
asS'Daxian'
p596
(lp597
g3
asS'Fly'
p598
(lp599
g3
asS'INQ_Mobile'
p600
(lp601
g3
asS'Poseidon'
p602
(lp603
g3
asS'ZTE'
p604
(lp605
S'1.6'
p606
ag3
aS'2003'
p607
aS'6.5'
p608
aS'6.1'
p609
aS'2.3'
p610
aS'2.2'
p611
aS'2.1'
p612
asS'Karbonn'
p613
(lp614
g3
asS'Sanyo'
p615
(lp616
g3
asS'AlphaCell_Wireless'
p617
(lp618
g3
asg3
(lp619
g3
asS'Toplux'
p620
(lp621
g3
asS'KDDI-Kyocera'
p622
(lp623
g3
asS'Tranxcode'
p624
(lp625
g3
asS'Ericy'
p626
(lp627
g3
asS'Enteos'
p628
(lp629
g3
asS'HEDY'
p630
(lp631
g3
asS'Opera'
p632
(lp633
g3
asS'Kozi'
p634
(lp635
g3
asS'K-Touch'
p636
(lp637
g3
asS'CECT'
p638
(lp639
g3
asS'Archos'
p640
(lp641
S'2.2'
p642
aS'2.1'
p643
aS'0.5'
p644
aS'1.5'
p645
asS'Sendo'
p646
(lp647
g3
aS'6.1'
p648
asS'Onda'
p649
(lp650
g3
asS'Mobile_Wireless_Group'
p651
(lp652
S'6.1'
p653
asS'eTouch'
p654
(lp655
g3
asS'Vitelcom'
p656
(lp657
g3
asS'Airis'
p658
(lp659
S'Pocket_PC_2002'
p660
asS'CDM'
p661
(lp662
g3
asS'Taiwan_Mobile'
p663
(lp664
S'1.6'
p665
asS'LGUPlus'
p666
(lp667
S'2.2'
p668
aS'6.5'
p669
ag3
asS'Gradiente'
p670
(lp671
g3
asS'Medion'
p672
(lp673
g3
asS'tvCompass'
p674
(lp675
g3
asS'TiPhone'
p676
(lp677
g3
asS'Acer_Incorporated'
p678
(lp679
S'6.1'
p680
asS'Chunghwa'
p681
(lp682
S'1.5'
p683
asS'Cingular'
p684
(lp685
S'5'
p686
asS'Dmobo'
p687
(lp688
g3
asS'Pantech'
p689
(lp690
S'2.2'
p691
aS'2.1'
p692
ag3
aS'6.1'
p693
aS'6'
p694
asS'Qtek'
p695
(lp696
S'2003'
p697
aS'2003_SE'
p698
aS'5'
p699
asS'Ubiquam'
p700
(lp701
g3
asS'Panasonic'
p702
(lp703
S'7.0'
p704
ag3
asS'KT_Tech'
p705
(lp706
S'2.2'
p707
asS'AnexTek'
p708
(lp709
S'2003'
p710
asS'SmartQ'
p711
(lp712
S'2.1'
p713
asS'Barnes_and_Noble'
p714
(lp715
S'2.0'
p716
asS'BenQ-Siemens'
p717
(lp718
g3
asS'Mio'
p719
(lp720
g3
asS'Neonode'
p721
(lp722
S'Pocket_PC_2002'
p723
asS'Optimay'
p724
(lp725
g3
asS'Dopod'
p726
(lp727
S'5.0'
p728
aS'1.5'
p729
aS'1.6'
p730
aS'2003'
p731
aS'5'
p732
aS'6.1'
p733
aS'6'
p734
asS'Innostream'
p735
(lp736
g3
asS'Voxtel'
p737
(lp738
S'5'
p739
ag3
asS'Nintendo'
p740
(lp741
g3
asS'DoCoMo'
p742
(lp743
S'2.3'
p744
aS'2.2'
p745
aS'2.1'
p746
ag3
aS'3.0'
p747
asS'ERA'
p748
(lp749
S'1.5'
p750
asS'Asmobile'
p751
(lp752
g3
asS'Fitel'
p753
(lp754
g3
asS'SAMART_i-mobile'
p755
(lp756
g3
asS'QCI'
p757
(lp758
g3
asS'Blue_Coat'
p759
(lp760
g3
asS'LG'
p761
(lp762
S'1.5'
p763
aS'1.6'
p764
aS'7'
p765
aS'2.2.2'
p766
ag3
aS'3.0'
p767
aS'5'
p768
aS'6.1'
p769
aS'6'
p770
aS'2.3'
p771
aS'2.2'
p772
aS'2.1'
p773
aS'9.2'
p774
aS'9.3'
p775
asS'Videocon'
p776
(lp777
g3
asS'VERZIOWORLD'
p778
(lp779
g3
asS'Telit'
p780
(lp781
g3
asS'Dicam'
p782
(lp783
g3
asS'PhoneOne'
p784
(lp785
g3
aS'6'
p786
asS'Dell'
p787
(lp788
S'2.2'
p789
aS'1.6'
p790
asS'Panda'
p791
(lp792
g3
asS'Elson'
p793
(lp794
g3
asS'LT'
p795
(lp796
g3
asS'BayMobile'
p797
(lp798
g3
asS'DBTEL'
p799
(lp800
g3
asS'Uniscope'
p801
(lp802
g3
asS'Bellwave'
p803
(lp804
g3
asS'Nextbook'
p805
(lp806
S'1.5'
p807
aS'2.1'
p808
asS'Softbank'
p809
(lp810
S'2.2'
p811
aS'1.6'
p812
ag3
asS'Polaris'
p813
(lp814
g3
asS'TINNO'
p815
(lp816
g3
asS'MAUI-based_Generic'
p817
(lp818
g3
asS'Philips'
p819
(lp820
g3
asS'Wonu'
p821
(lp822
g3
asS'Avvio'
p823
(lp824
g3
asS'Alcatel'
p825
(lp826
S'2.2'
p827
aS'2.1'
p828
ag3
asS'Generic_Windows'
p829
(lp830
S'Pocket_PC_2000'
p831
aS'Pocket_PC_2002'
p832
asS'AI'
p833
(lp834
g3
asS'IAC_OKWAP'
p835
(lp836
g3
asS'Mobell'
p837
(lp838
g3
asS'Logic_PD'
p839
(lp840
S'2.1'
p841
asS'Lobster'
p842
(lp843
g3
asS'IM'
p844
(lp845
g3
asS'Gigabyte'
p846
(lp847
S'1.6'
p848
aS'5'
p849
aS'6'
p850
asS'Lynx'
p851
(lp852
g3
asS'Becker'
p853
(lp854
g3
asS'Windows_Mobile'
p855
(lp856
S'2003'
p857
asS'Tel.Me.'
p858
(lp859
g3
asS'Wapamp'
p860
(lp861
g3
asS'RoverPC'
p862
(lp863
g3
asS'IXI'
p864
(lp865
g3
asS'Google'
p866
(lp867
S'1.6'
p868
ag3
aS'2.2.1'
p869
aS'2.2.2'
p870
aS'2.2'
p871
aS'2.1'
p872
asS'Apple'
p873
(lp874
S'3.1.3'
p875
aS'3.1.2'
p876
aS'3.1.1'
p877
aS'3.1.0'
p878
aS'1.0'
p879
aS'1.1.4'
p880
aS'2.0.1'
p881
aS'3.0.1'
p882
aS'3.2'
p883
aS'3.0'
p884
aS'3.1'
p885
aS'2.2'
p886
aS'2.1'
p887
aS'2.0'
p888
aS'2.0.2'
p889
aS'4.0.1'
p890
aS'4.0.2'
p891
aS'4.1'
p892
aS'4.0'
p893
aS'4.3'
p894
aS'4.2'
p895
aS'1.1.5'
p896
ag3
aS'2.1.1'
p897
aS'4.2.1'
p898
aS'3.2.1'
p899
aS'4.3.1'
p900
aS'2.2.1'
p901
asS'Longcos'
p902
(lp903
g3
asS'Sunrise'
p904
(lp905
g3
asS'Cking'
p906
(lp907
g3
asS'Zen'
p908
(lp909
g3
asS'Kyocera'
p910
(lp911
S'1.6'
p912
ag3
aS'6.0'
p913
asS'Skyspring'
p914
(lp915
g3
asS'Modottel'
p916
(lp917
g3
asS'Sprint'
p918
(lp919
S'2003_SE'
p920
aS'5'
p921
asS'M3_Gate'
p922
(lp923
g3
asS'Era'
p924
(lp925
S'1.5'
p926
aS'1.6'
p927
as.
