(dp0
S'GHT'
p1
(lp2
S'MTK/Nucleus_OS'
p3
asS'Infineon'
p4
(lp5
S'N/A'
p6
asS'Usha_Lexus'
p7
(lp8
g6
asS'Dai_Telecom'
p9
(lp10
g6
asS'Emblaze'
p11
(lp12
g6
asS'CoralWeb'
p13
(lp14
g6
asS'KDDI'
p15
(lp16
S'Android'
p17
ag6
asS'Helio'
p18
(lp19
g6
asS'Ezze'
p20
(lp21
g6
asS'Desktop'
p22
(lp23
g6
asS'Access'
p24
(lp25
S'Symbian_OS'
p26
ag6
asS'Huawei'
p27
(lp28
S'Android'
p29
aS'Windows_Mobile_OS'
p30
ag6
asS'TTPCom'
p31
(lp32
g6
asS'Morange'
p33
(lp34
g6
asS'Smile'
p35
(lp36
g6
asS'O2'
p37
(lp38
S'Windows_Mobile_OS'
p39
ag6
asS'Vodafone'
p40
(lp41
S'Android'
p42
aS'Windows_Mobile_OS'
p43
ag6
asS'RT'
p44
(lp45
g6
asS'Cricket'
p46
(lp47
g6
asS'Garmin-Asus'
p48
(lp49
S'Android'
p50
asS'SonyEricsson'
p51
(lp52
S'Symbian_OS'
p53
aS'Windows_Mobile_OS'
p54
ag6
aS'Android'
p55
asS'Verizon'
p56
(lp57
S'Android'
p58
aS'Windows_Mobile_OS'
p59
asS'Uriver'
p60
(lp61
g6
asS'Nokia'
p62
(lp63
S'Symbian_OS'
p64
ag6
aS'Linux_Smartphone_OS'
p65
asS'ARCELIK'
p66
(lp67
g6
asS'Zonda'
p68
(lp69
g6
asS'Miracle'
p70
(lp71
g6
asS'Audiovox'
p72
(lp73
S'Windows_Mobile_OS'
p74
ag6
asS'Airness'
p75
(lp76
g6
asS'RIM'
p77
(lp78
S'RIM_OS'
p79
ag6
asS'Lexibook'
p80
(lp81
g6
asS'SPC'
p82
(lp83
g6
asS'Spice'
p84
(lp85
g6
asS'Nexian'
p86
(lp87
g6
asS'VeryKool'
p88
(lp89
g6
asS'UTStarcom'
p90
(lp91
S'Windows_Mobile_OS'
p92
ag6
asS'Novarra'
p93
(lp94
g6
asS'Micromax'
p95
(lp96
S'MTK/Nucleus_OS'
p97
ag6
asS'MOBISTEL'
p98
(lp99
g6
asS'BEKO'
p100
(lp101
g6
asS'SlobTrot_Software'
p102
(lp103
g6
asS'HTIL'
p104
(lp105
g6
asS'Sagem'
p106
(lp107
S'Windows_Mobile_OS'
p108
ag6
asS'KDDI-SonyEricsson'
p109
(lp110
g6
asS'XJXN'
p111
(lp112
g6
asS'Vertu'
p113
(lp114
S'Symbian_OS'
p115
ag6
asS'Aiko'
p116
(lp117
g6
asS'Ahong'
p118
(lp119
g6
asS'Asus'
p120
(lp121
S'Android'
p122
aS'Windows_Mobile_OS'
p123
ag6
aS'Windows_Phone_OS'
p124
asS'InfoSonics'
p125
(lp126
g6
asS'Velocity_Mobile'
p127
(lp128
S'Windows_Mobile_OS'
p129
asS'WellcoM'
p130
(lp131
S'Android'
p132
ag6
asS'i-mobile'
p133
(lp134
g6
asS'KCM'
p135
(lp136
g6
asS'Danger'
p137
(lp138
S'Hiptop_OS'
p139
asS'Venera'
p140
(lp141
g6
asS'CheckCom'
p142
(lp143
g6
asS'Hitachi'
p144
(lp145
g6
asS'Newgen'
p146
(lp147
g6
asS'Itelco'
p148
(lp149
g6
asS'WAPUniverse'
p150
(lp151
g6
asS'ETEN'
p152
(lp153
S'Windows_Mobile_OS'
p154
asS'Sharp'
p155
(lp156
S'Android'
p157
aS'Windows_Mobile_OS'
p158
ag6
aS'Symbian_OS'
p159
asS'Skybee'
p160
(lp161
g6
asS'Zenithink'
p162
(lp163
S'Android'
p164
asS'Maxon'
p165
(lp166
g6
asS'BenQ'
p167
(lp168
S'Windows_Mobile_OS'
p169
ag6
asS'Gionee'
p170
(lp171
g6
asS'Lemon'
p172
(lp173
g6
asS'Sonim'
p174
(lp175
g6
asS'Techfaith'
p176
(lp177
S'Windows_Mobile_OS'
p178
asS'Generic'
p179
(lp180
S'Windows_Mobile_OS'
p181
ag6
aS'Windows_Phone_OS'
p182
asS'Grundig'
p183
(lp184
S'Windows_Mobile_OS'
p185
ag6
aS'Linux_Smartphone_OS'
p186
asS'HP'
p187
(lp188
S'Windows_Mobile_OS'
p189
asS'KDDI-Toshiba'
p190
(lp191
g6
asS'Nec'
p192
(lp193
S'Android'
p194
asS'Cincinnati_Bell'
p195
(lp196
S'Android'
p197
asS'Konka'
p198
(lp199
g6
asS'Lenovo'
p200
(lp201
S'Android'
p202
aS'MTK/Nucleus_OS'
p203
aS'Windows_Mobile_OS'
p204
ag6
asS'Meizu'
p205
(lp206
S'Android'
p207
asS'Unistar'
p208
(lp209
g6
asS'ModeLabs'
p210
(lp211
g6
asS'Orange'
p212
(lp213
S'Windows_Mobile_OS'
p214
ag6
asS'Android'
p215
(lp216
S'Android'
p217
asS'Capitel'
p218
(lp219
g6
asS'Tianyu'
p220
(lp221
g6
asS'.mobi'
p222
(lp223
g6
asS'PCD'
p224
(lp225
g6
asS'Modu'
p226
(lp227
g6
asS'QMobile'
p228
(lp229
g6
asS'W3C'
p230
(lp231
g6
asS'Reporo'
p232
(lp233
g6
asS'Utec'
p234
(lp235
g6
asS'LXE'
p236
(lp237
g6
asS'T-Mobile'
p238
(lp239
S'Hiptop_OS'
p240
aS'Android'
p241
aS'Windows_Mobile_OS'
p242
asS'Amazon'
p243
(lp244
S'Linux_Smartphone_OS'
p245
asS'Wapsilon'
p246
(lp247
g6
asS'MOMO_Design'
p248
(lp249
g6
asS'Elite'
p250
(lp251
g6
asS'Vodafone_ZTE'
p252
(lp253
g6
asS'Sony'
p254
(lp255
g6
asS'Mitsubishi'
p256
(lp257
g6
asS'Raks'
p258
(lp259
g6
asS'Skyworth'
p260
(lp261
g6
asS'Hummer'
p262
(lp263
g6
asS'Amoi'
p264
(lp265
S'Windows_Mobile_OS'
p266
ag6
asS'Motorola'
p267
(lp268
S'Linux_Smartphone_OS'
p269
aS'Symbian_OS'
p270
aS'Windows_Mobile_OS'
p271
ag6
aS'Android'
p272
asS'KPT'
p273
(lp274
g6
asS'Samsung'
p275
(lp276
S'Bada_OS'
p277
aS'Windows_Mobile_OS'
p278
ag6
aS'Windows_Phone_OS'
p279
aS'Palm_OS'
p280
aS'Linux_Smartphone_OS'
p281
aS'Android'
p282
aS'Symbian_OS'
p283
asS'Malata'
p284
(lp285
g6
asS'B-Mobile'
p286
(lp287
g6
asS'Robot'
p288
(lp289
g6
asS'UCWEB'
p290
(lp291
g6
asS'MyPhone'
p292
(lp293
g6
asS'ZT'
p294
(lp295
g6
asS'TCL'
p296
(lp297
S'Android'
p298
ag6
asS'Skyfire'
p299
(lp300
g6
asS'Microsoft'
p301
(lp302
S'Windows_Mobile_OS'
p303
ag6
aS'Windows_Phone_OS'
p304
asS'Doris'
p305
(lp306
S'Symbian_OS'
p307
asS'Bleu'
p308
(lp309
g6
asS'LCT'
p310
(lp311
g6
asS'Vacom'
p312
(lp313
g6
asS'HTC'
p314
(lp315
S'Android'
p316
aS'Windows_Mobile_OS'
p317
ag6
aS'Windows_Phone_OS'
p318
asS'Ron'
p319
(lp320
g6
asS'Tecno'
p321
(lp322
S'MTK/Nucleus_OS'
p323
ag6
asS'Openwave'
p324
(lp325
g6
asS'Tinno'
p326
(lp327
g6
asS'i-mate'
p328
(lp329
S'Windows_Mobile_OS'
p330
asS'Palm'
p331
(lp332
S'Palm_OS'
p333
aS'Windows_Mobile_OS'
p334
aS'webOS'
p335
ag6
asS'EDL'
p336
(lp337
g6
asS'Acer'
p338
(lp339
S'Android'
p340
aS'Windows_Mobile_OS'
p341
ag6
asS'Lexus'
p342
(lp343
g6
asS'Ericsson'
p344
(lp345
g6
asS'Pirelli-Arcor'
p346
(lp347
g6
asS'Palm_3'
p348
(lp349
g6
asS'Rover'
p350
(lp351
g6
asS'Vibo'
p352
(lp353
S'Android'
p354
ag6
asS'KDDI-Sanyo'
p355
(lp356
g6
asS'Coolpad'
p357
(lp358
g6
asS'Telecom_Italia'
p359
(lp360
g6
asS'NEC'
p361
(lp362
g6
asS'Yas'
p363
(lp364
g6
asS'UKING'
p365
(lp366
S'MTK/Nucleus_OS'
p367
asS'Hisense'
p368
(lp369
g6
asS'Nem'
p370
(lp371
g6
asS'Dallab'
p372
(lp373
S'Windows_Mobile_OS'
p374
asS'Mitac'
p375
(lp376
S'Windows_Mobile_OS'
p377
asS'Compal'
p378
(lp379
g6
asS'SAMART'
p380
(lp381
g6
asS'VK_Mobile'
p382
(lp383
g6
asS'Emobile'
p384
(lp385
S'Windows_Mobile_OS'
p386
asS'Hei'
p387
(lp388
g6
asS'Haier'
p389
(lp390
g6
asS'Apanda'
p391
(lp392
S'Android'
p393
asS'INNO'
p394
(lp395
g6
asS'SmartTrust'
p396
(lp397
g6
asS'Klondike'
p398
(lp399
g6
asS'Psion'
p400
(lp401
g6
asS'Siemens'
p402
(lp403
S'Symbian_OS'
p404
aS'Windows_Mobile_OS'
p405
ag6
asS'ViewSonic'
p406
(lp407
S'Android'
p408
asS'EZIO'
p409
(lp410
g6
asS'SK_Telesys'
p411
(lp412
S'Android'
p413
asS'Kisen'
p414
(lp415
g6
asS'Toshiba'
p416
(lp417
S'Android'
p418
aS'Windows_Mobile_OS'
p419
ag6
asS'WinWAP_Technologies'
p420
(lp421
g6
asS'SavaJe'
p422
(lp423
g6
asS'Coby'
p424
(lp425
S'Android'
p426
asS'NGM'
p427
(lp428
g6
asS'Kejian'
p429
(lp430
g6
asS'iKoMo'
p431
(lp432
g6
asS'Bird'
p433
(lp434
g6
asS'Daxian'
p435
(lp436
g6
asS'Fly'
p437
(lp438
g6
asS'INQ_Mobile'
p439
(lp440
g6
asS'Poseidon'
p441
(lp442
g6
asS'ZTE'
p443
(lp444
S'Android'
p445
aS'Windows_Mobile_OS'
p446
ag6
asS'Karbonn'
p447
(lp448
g6
asS'Sanyo'
p449
(lp450
g6
asS'AlphaCell_Wireless'
p451
(lp452
g6
asg6
(lp453
g6
asS'Toplux'
p454
(lp455
g6
asS'KDDI-Kyocera'
p456
(lp457
g6
asS'Tranxcode'
p458
(lp459
g6
asS'Ericy'
p460
(lp461
g6
asS'Enteos'
p462
(lp463
g6
asS'HEDY'
p464
(lp465
g6
asS'Opera'
p466
(lp467
S'Symbian_OS'
p468
ag6
asS'Kozi'
p469
(lp470
g6
asS'K-Touch'
p471
(lp472
g6
asS'CECT'
p473
(lp474
g6
asS'Archos'
p475
(lp476
S'Android'
p477
asS'Sendo'
p478
(lp479
S'Symbian_OS'
p480
ag6
asS'Onda'
p481
(lp482
g6
asS'Mobile_Wireless_Group'
p483
(lp484
S'Windows_Mobile_OS'
p485
asS'eTouch'
p486
(lp487
g6
asS'Vitelcom'
p488
(lp489
g6
asS'Airis'
p490
(lp491
S'Windows_Mobile_OS'
p492
asS'CDM'
p493
(lp494
g6
asS'Taiwan_Mobile'
p495
(lp496
S'Android'
p497
asS'LGUPlus'
p498
(lp499
S'Rex_Qualcomm_OS'
p500
aS'Android'
p501
aS'Windows_Mobile_OS'
p502
ag6
asS'Gradiente'
p503
(lp504
g6
asS'Medion'
p505
(lp506
g6
asS'tvCompass'
p507
(lp508
g6
asS'TiPhone'
p509
(lp510
g6
asS'Acer_Incorporated'
p511
(lp512
S'Windows_Mobile_OS'
p513
asS'Chunghwa'
p514
(lp515
S'Android'
p516
asS'Cingular'
p517
(lp518
S'Windows_Mobile_OS'
p519
asS'Dmobo'
p520
(lp521
g6
asS'Pantech'
p522
(lp523
S'Android'
p524
aS'Windows_Mobile_OS'
p525
ag6
asS'Qtek'
p526
(lp527
S'Windows_Mobile_OS'
p528
asS'Ubiquam'
p529
(lp530
g6
asS'Panasonic'
p531
(lp532
S'Symbian_OS'
p533
ag6
asS'KT_Tech'
p534
(lp535
S'Android'
p536
asS'AnexTek'
p537
(lp538
S'Windows_Mobile_OS'
p539
asS'SmartQ'
p540
(lp541
S'Android'
p542
asS'Barnes_and_Noble'
p543
(lp544
S'Android'
p545
asS'BenQ-Siemens'
p546
(lp547
g6
asS'Mio'
p548
(lp549
g6
asS'Neonode'
p550
(lp551
S'Windows_Mobile_OS'
p552
asS'Optimay'
p553
(lp554
g6
asS'Dopod'
p555
(lp556
S'Android'
p557
aS'Windows_Mobile_OS'
p558
asS'Innostream'
p559
(lp560
g6
asS'Voxtel'
p561
(lp562
S'Windows_Mobile_OS'
p563
ag6
asS'Nintendo'
p564
(lp565
S'Symbian_OS'
p566
ag6
asS'DoCoMo'
p567
(lp568
S'Android'
p569
ag6
aS'Symbian_OS'
p570
asS'ERA'
p571
(lp572
S'Android'
p573
asS'Asmobile'
p574
(lp575
g6
asS'Fitel'
p576
(lp577
g6
asS'SAMART_i-mobile'
p578
(lp579
g6
asS'QCI'
p580
(lp581
g6
asS'Blue_Coat'
p582
(lp583
g6
asS'LG'
p584
(lp585
S'Android'
p586
aS'Windows_Phone_OS'
p587
aS'Windows_Mobile_OS'
p588
ag6
aS'Symbian_OS'
p589
asS'Videocon'
p590
(lp591
g6
asS'VERZIOWORLD'
p592
(lp593
S'MTK/Nucleus_OS'
p594
asS'Telit'
p595
(lp596
g6
asS'Dicam'
p597
(lp598
g6
asS'PhoneOne'
p599
(lp600
S'Windows_Mobile_OS'
p601
ag6
asS'Dell'
p602
(lp603
S'Android'
p604
asS'Panda'
p605
(lp606
g6
asS'Elson'
p607
(lp608
g6
asS'LT'
p609
(lp610
g6
asS'BayMobile'
p611
(lp612
S'MTK/Nucleus_OS'
p613
asS'DBTEL'
p614
(lp615
g6
asS'Uniscope'
p616
(lp617
g6
asS'Bellwave'
p618
(lp619
g6
asS'Nextbook'
p620
(lp621
S'Android'
p622
asS'Softbank'
p623
(lp624
S'Android'
p625
ag6
asS'Polaris'
p626
(lp627
g6
asS'TINNO'
p628
(lp629
g6
asS'MAUI-based_Generic'
p630
(lp631
S'MTK/Nucleus_OS'
p632
asS'Philips'
p633
(lp634
g6
asS'Wonu'
p635
(lp636
g6
asS'Avvio'
p637
(lp638
g6
asS'Alcatel'
p639
(lp640
S'Android'
p641
aS'MTK/Nucleus_OS'
p642
ag6
asS'Generic_Windows'
p643
(lp644
S'Windows_Mobile_OS'
p645
asS'AI'
p646
(lp647
g6
asS'IAC_OKWAP'
p648
(lp649
g6
asS'Mobell'
p650
(lp651
g6
asS'Logic_PD'
p652
(lp653
S'Android'
p654
asS'Lobster'
p655
(lp656
g6
asS'IM'
p657
(lp658
g6
asS'Gigabyte'
p659
(lp660
S'Android'
p661
aS'Windows_Mobile_OS'
p662
asS'Lynx'
p663
(lp664
g6
asS'Becker'
p665
(lp666
g6
asS'Windows_Mobile'
p667
(lp668
S'Windows_Mobile_OS'
p669
asS'Tel.Me.'
p670
(lp671
g6
asS'Wapamp'
p672
(lp673
g6
asS'RoverPC'
p674
(lp675
S'Windows_Mobile_OS'
p676
asS'IXI'
p677
(lp678
g6
asS'Google'
p679
(lp680
S'Android'
p681
ag6
asS'Apple'
p682
(lp683
S'iPhone_OS'
p684
asS'Longcos'
p685
(lp686
g6
asS'Sunrise'
p687
(lp688
g6
asS'Cking'
p689
(lp690
g6
asS'Zen'
p691
(lp692
g6
asS'Kyocera'
p693
(lp694
S'Android'
p695
aS'Windows_Mobile_OS'
p696
ag6
aS'Palm_OS'
p697
asS'Skyspring'
p698
(lp699
g6
asS'Modottel'
p700
(lp701
g6
asS'Sprint'
p702
(lp703
S'Windows_Mobile_OS'
p704
asS'M3_Gate'
p705
(lp706
g6
asS'Era'
p707
(lp708
S'Android'
p709
as.
