(dp0
S'MTK/Nucleus_OS'
p1
(lp2
S'N/A'
p3
asS'Hiptop_OS'
p4
(lp5
g3
asS'Bada_OS'
p6
(lp7
S'1.0'
p8
aS'1.2'
p9
asS'Rex_Qualcomm_OS'
p10
(lp11
g3
asS'Windows_Mobile_OS'
p12
(lp13
S'5.0'
p14
aS'5.2'
p15
aS'Pocket_PC_2002'
p16
aS'6.0'
p17
ag3
aS'2003'
p18
aS'6.5'
p19
aS'5'
p20
aS'6.1'
p21
aS'6'
p22
aS'Pocket_PC_2000'
p23
aS'2003_SE'
p24
aS'6.8'
p25
asS'iPhone_OS'
p26
(lp27
S'3.1.3'
p28
aS'3.1.2'
p29
aS'3.1.1'
p30
aS'3.1.0'
p31
aS'1.0'
p32
aS'1.1.4'
p33
aS'2.0.1'
p34
aS'3.0.1'
p35
aS'3.2'
p36
aS'3.0'
p37
aS'3.1'
p38
aS'2.2'
p39
aS'2.1'
p40
aS'2.0'
p41
aS'2.0.2'
p42
aS'4.0.1'
p43
aS'4.0.2'
p44
aS'4.1'
p45
aS'4.0'
p46
aS'4.3'
p47
aS'4.2'
p48
aS'1.1.5'
p49
ag3
aS'2.1.1'
p50
aS'4.2.1'
p51
aS'3.2.1'
p52
aS'4.3.1'
p53
aS'2.2.1'
p54
asg3
(lp55
S'7.0'
p56
ag3
aS'9.2'
p57
aS'3.1'
p58
asS'Palm_OS'
p59
(lp60
S'5.2.8'
p61
aS'4.1'
p62
ag3
asS'RIM_OS'
p63
(lp64
S'3.6'
p65
aS'3.7'
p66
aS'3.5'
p67
aS'3.2'
p68
aS'3.3'
p69
aS'6.0'
p70
aS'3.8'
p71
aS'4.5'
p72
aS'4.7'
p73
aS'4.6'
p74
aS'4.1'
p75
aS'4.0'
p76
aS'4.3'
p77
aS'4.2'
p78
aS'1'
p79
aS'2'
p80
aS'5'
p81
aS'5.0'
p82
aS'4.7.1'
p83
aS'4.1.0'
p84
aS'4.6.1'
p85
aS'4.2.2'
p86
aS'3.2.1'
p87
asS'Linux_Smartphone_OS'
p88
(lp89
S'2.4.20'
p90
aS'1.0'
p91
ag3
aS'2.6.10'
p92
aS'2.0'
p93
aS'2.6'
p94
aS'2.6.22'
p95
aS'2.4'
p96
asS'webOS'
p97
(lp98
S'1.4.1'
p99
aS'1.0'
p100
aS'1.4.5'
p101
aS'1.2'
p102
aS'1.3'
p103
aS'1.3.5'
p104
aS'1.1'
p105
aS'Albacore'
p106
aS'1.2.9'
p107
asS'Symbian_OS'
p108
(lp109
S'8.1'
p110
aS'8.0'
p111
aS'7.0s'
p112
aS'S3'
p113
ag3
aS'7.0'
p114
aS'6.1'
p115
aS'9.4'
p116
aS'9.1'
p117
aS'9.2'
p118
aS'9.3'
p119
asS'Windows_Phone_OS'
p120
(lp121
S'7'
p122
asS'Android'
p123
(lp124
S'1.5'
p125
aS'1.6'
p126
aS'1.0'
p127
aS'1.1'
p128
aS'2.0.1'
p129
aS'2.3.3'
p130
aS'0.5'
p131
aS'2.2.1'
p132
aS'3.0'
p133
aS'2.2.2'
p134
aS'2.3'
p135
aS'2.2'
p136
aS'2.1'
p137
aS'2.0'
p138
aS'2.4'
p139
as.
