(dp0
S'3.1.3'
p1
(lp2
S'iPhone_OS'
p3
asS'3.1.2'
p4
(lp5
S'iPhone_OS'
p6
asS'1.6'
p7
(lp8
S'Android'
p9
asS'3.1.0'
p10
(lp11
S'iPhone_OS'
p12
asS'7.0s'
p13
(lp14
S'Symbian_OS'
p15
asS'3.0'
p16
(lp17
S'Android'
p18
aS'iPhone_OS'
p19
asS'1.2'
p20
(lp21
S'Bada_OS'
p22
aS'webOS'
p23
asS'1.5'
p24
(lp25
S'Android'
p26
asS'S3'
p27
(lp28
S'Symbian_OS'
p29
asS'6.0'
p30
(lp31
S'RIM_OS'
p32
aS'Windows_Mobile_OS'
p33
asS'0.5'
p34
(lp35
S'Android'
p36
asS'3.1.1'
p37
(lp38
S'iPhone_OS'
p39
asS'Pocket_PC_2000'
p40
(lp41
S'Windows_Mobile_OS'
p42
asS'3.6'
p43
(lp44
S'RIM_OS'
p45
asS'3.7'
p46
(lp47
S'RIM_OS'
p48
asS'6.5'
p49
(lp50
S'Windows_Mobile_OS'
p51
asS'3.5'
p52
(lp53
S'RIM_OS'
p54
asS'2.2.1'
p55
(lp56
S'Android'
p57
aS'iPhone_OS'
p58
asS'2.4.20'
p59
(lp60
S'Linux_Smartphone_OS'
p61
asS'6.1'
p62
(lp63
S'Symbian_OS'
p64
aS'Windows_Mobile_OS'
p65
asS'Albacore'
p66
(lp67
S'webOS'
p68
asS'2.3'
p69
(lp70
S'Android'
p71
asS'2.2'
p72
(lp73
S'Android'
p74
aS'iPhone_OS'
p75
asS'2.1'
p76
(lp77
S'Android'
p78
aS'iPhone_OS'
p79
asS'2.0'
p80
(lp81
S'Android'
p82
aS'iPhone_OS'
p83
aS'Linux_Smartphone_OS'
p84
asS'2.6'
p85
(lp86
S'Linux_Smartphone_OS'
p87
asS'3.8'
p88
(lp89
S'RIM_OS'
p90
asS'1.1.4'
p91
(lp92
S'iPhone_OS'
p93
asS'5.0'
p94
(lp95
S'RIM_OS'
p96
aS'Windows_Mobile_OS'
p97
asS'8.0'
p98
(lp99
S'Symbian_OS'
p100
asS'5.2'
p101
(lp102
S'Windows_Mobile_OS'
p103
asS'4.6'
p104
(lp105
S'RIM_OS'
p106
asS'4.1'
p107
(lp108
S'Palm_OS'
p109
aS'RIM_OS'
p110
aS'iPhone_OS'
p111
asS'4.0'
p112
(lp113
S'RIM_OS'
p114
aS'iPhone_OS'
p115
asS'4.3'
p116
(lp117
S'RIM_OS'
p118
aS'iPhone_OS'
p119
asS'4.2'
p120
(lp121
S'RIM_OS'
p122
aS'iPhone_OS'
p123
asS'1.3'
p124
(lp125
S'webOS'
p126
asS'2.0.2'
p127
(lp128
S'iPhone_OS'
p129
asS'3.3'
p130
(lp131
S'RIM_OS'
p132
asS'8.1'
p133
(lp134
S'Symbian_OS'
p135
asS'1'
p136
(lp137
S'RIM_OS'
p138
asS'2.6.10'
p139
(lp140
S'Linux_Smartphone_OS'
p141
asS'2'
p142
(lp143
S'RIM_OS'
p144
asS'5'
p145
(lp146
S'RIM_OS'
p147
aS'Windows_Mobile_OS'
p148
asS'7'
p149
(lp150
S'Windows_Phone_OS'
p151
asS'6'
p152
(lp153
S'Windows_Mobile_OS'
p154
asS'9.4'
p155
(lp156
S'Symbian_OS'
p157
asS'1.1.5'
p158
(lp159
S'iPhone_OS'
p160
asS'2003_SE'
p161
(lp162
S'Windows_Mobile_OS'
p163
asS'9.1'
p164
(lp165
S'Symbian_OS'
p166
asS'9.2'
p167
(lp168
S'Symbian_OS'
p169
aS'N/A'
p170
asS'9.3'
p171
(lp172
S'Symbian_OS'
p173
asS'2.2.2'
p174
(lp175
S'Android'
p176
asS'4.5'
p177
(lp178
S'RIM_OS'
p179
asS'2.0.1'
p180
(lp181
S'Android'
p182
aS'iPhone_OS'
p183
asS'2.3.3'
p184
(lp185
S'Android'
p186
asS'1.4.5'
p187
(lp188
S'webOS'
p189
asS'6.8'
p190
(lp191
S'Windows_Mobile_OS'
p192
asS'4.3.1'
p193
(lp194
S'iPhone_OS'
p195
asS'2.4'
p196
(lp197
S'Android'
p198
aS'Linux_Smartphone_OS'
p199
asg170
(lp200
S'MTK/Nucleus_OS'
p201
aS'Hiptop_OS'
p202
aS'Rex_Qualcomm_OS'
p203
aS'Windows_Mobile_OS'
p204
ag170
aS'iPhone_OS'
p205
aS'Palm_OS'
p206
aS'Linux_Smartphone_OS'
p207
aS'Symbian_OS'
p208
asS'4.0.2'
p209
(lp210
S'iPhone_OS'
p211
asS'1.3.5'
p212
(lp213
S'webOS'
p214
asS'1.1'
p215
(lp216
S'Android'
p217
aS'webOS'
p218
asS'3.0.1'
p219
(lp220
S'iPhone_OS'
p221
asS'4.1.0'
p222
(lp223
S'RIM_OS'
p224
asS'1.0'
p225
(lp226
S'Bada_OS'
p227
aS'Android'
p228
aS'iPhone_OS'
p229
aS'Linux_Smartphone_OS'
p230
aS'webOS'
p231
asS'Pocket_PC_2002'
p232
(lp233
S'Windows_Mobile_OS'
p234
asS'2.1.1'
p235
(lp236
S'iPhone_OS'
p237
asS'4.6.1'
p238
(lp239
S'RIM_OS'
p240
asS'1.2.9'
p241
(lp242
S'webOS'
p243
asS'4.2.2'
p244
(lp245
S'RIM_OS'
p246
asS'4.0.1'
p247
(lp248
S'iPhone_OS'
p249
asS'3.1'
p250
(lp251
S'iPhone_OS'
p252
ag170
asS'7.0'
p253
(lp254
S'Symbian_OS'
p255
ag170
asS'2003'
p256
(lp257
S'Windows_Mobile_OS'
p258
asS'4.2.1'
p259
(lp260
S'iPhone_OS'
p261
asS'4.7.1'
p262
(lp263
S'RIM_OS'
p264
asS'3.2.1'
p265
(lp266
S'RIM_OS'
p267
aS'iPhone_OS'
p268
asS'1.4.1'
p269
(lp270
S'webOS'
p271
asS'5.2.8'
p272
(lp273
S'Palm_OS'
p274
asS'3.2'
p275
(lp276
S'RIM_OS'
p277
aS'iPhone_OS'
p278
asS'2.6.22'
p279
(lp280
S'Linux_Smartphone_OS'
p281
asS'4.7'
p282
(lp283
S'RIM_OS'
p284
as.
