(dp0
S'3.1.3'
p1
(lp2
S'Apple'
p3
asS'3.1.2'
p4
(lp5
S'Apple'
p6
asS'1.6'
p7
(lp8
S'Vibo'
p9
aS'Apanda'
p10
aS'Taiwan_Mobile'
p11
aS'Dopod'
p12
aS'WellcoM'
p13
aS'Android'
p14
aS'LG'
p15
aS'Garmin-Asus'
p16
aS'SonyEricsson'
p17
aS'Dell'
p18
aS'T-Mobile'
p19
aS'Softbank'
p20
aS'Motorola'
p21
aS'Samsung'
p22
aS'ZTE'
p23
aS'Gigabyte'
p24
aS'Era'
p25
aS'Sharp'
p26
aS'Asus'
p27
aS'Google'
p28
aS'HTC'
p29
aS'Cincinnati_Bell'
p30
aS'Kyocera'
p31
aS'Acer'
p32
asS'3.1.0'
p33
(lp34
S'Apple'
p35
asS'7.0s'
p36
(lp37
S'Nokia'
p38
aS'Motorola'
p39
aS'Samsung'
p40
asS'3.0'
p41
(lp42
S'LG'
p43
aS'Motorola'
p44
aS'Apple'
p45
aS'Samsung'
p46
aS'DoCoMo'
p47
aS'Acer'
p48
aS'Android'
p49
asS'1.2'
p50
(lp51
S'Palm'
p52
aS'Samsung'
p53
asS'1.5'
p54
(lp55
S'Archos'
p56
aS'LG'
p57
aS'Motorola'
p58
aS'HTC'
p59
aS'Samsung'
p60
aS'Dopod'
p61
aS'Era'
p62
aS'T-Mobile'
p63
aS'Huawei'
p64
aS'Lenovo'
p65
aS'Nextbook'
p66
aS'Chunghwa'
p67
aS'Acer'
p68
aS'Android'
p69
aS'ERA'
p70
asS'S3'
p71
(lp72
S'Nokia'
p73
asS'6.0'
p74
(lp75
S'Motorola'
p76
aS'HTC'
p77
aS'Samsung'
p78
aS'HP'
p79
aS'i-mate'
p80
aS'RIM'
p81
aS'Sharp'
p82
aS'Kyocera'
p83
asS'0.5'
p84
(lp85
S'Archos'
p86
aS'Android'
p87
asS'3.1.1'
p88
(lp89
S'Apple'
p90
asS'Pocket_PC_2000'
p91
(lp92
S'Generic_Windows'
p93
asS'3.6'
p94
(lp95
S'RIM'
p96
asS'3.7'
p97
(lp98
S'RIM'
p99
asS'6.5'
p100
(lp101
S'HTC'
p102
aS'Samsung'
p103
aS'Generic'
p104
aS'LGUPlus'
p105
aS'T-Mobile'
p106
aS'ZTE'
p107
aS'Acer'
p108
asS'3.5'
p109
(lp110
S'RIM'
p111
asS'2.2.1'
p112
(lp113
S'Motorola'
p114
aS'HTC'
p115
aS'Apple'
p116
aS'Google'
p117
asS'2.4.20'
p118
(lp119
S'Motorola'
p120
asS'6.1'
p121
(lp122
S'Generic'
p123
aS'HP'
p124
aS'Dopod'
p125
aS'Motorola'
p126
aS'Velocity_Mobile'
p127
aS'T-Mobile'
p128
aS'Emobile'
p129
aS'O2'
p130
aS'LG'
p131
aS'SonyEricsson'
p132
aS'Verizon'
p133
aS'Nokia'
p134
aS'Toshiba'
p135
aS'Siemens'
p136
aS'Palm'
p137
aS'UTStarcom'
p138
aS'Samsung'
p139
aS'ZTE'
p140
aS'Mobile_Wireless_Group'
p141
aS'Sharp'
p142
aS'Asus'
p143
aS'HTC'
p144
aS'Acer_Incorporated'
p145
aS'Sendo'
p146
aS'Acer'
p147
aS'Pantech'
p148
asS'Albacore'
p149
(lp150
S'Palm'
p151
asS'2.3'
p152
(lp153
S'LG'
p154
aS'Lenovo'
p155
aS'HTC'
p156
aS'SonyEricsson'
p157
aS'Samsung'
p158
aS'ZTE'
p159
aS'DoCoMo'
p160
aS'Android'
p161
asS'2.2'
p162
(lp163
S'KDDI'
p164
aS'Nec'
p165
aS'Huawei'
p166
aS'DoCoMo'
p167
aS'Meizu'
p168
aS'KT_Tech'
p169
aS'Android'
p170
aS'T-Mobile'
p171
aS'LG'
p172
aS'Verizon'
p173
aS'ViewSonic'
p174
aS'SK_Telesys'
p175
aS'Dell'
p176
aS'Toshiba'
p177
aS'TCL'
p178
aS'Softbank'
p179
aS'Motorola'
p180
aS'Alcatel'
p181
aS'Samsung'
p182
aS'ZTE'
p183
aS'Acer'
p184
aS'Archos'
p185
aS'Google'
p186
aS'HTC'
p187
aS'Apple'
p188
aS'LGUPlus'
p189
aS'Sharp'
p190
aS'Pantech'
p191
asS'2.1'
p192
(lp193
S'Coby'
p194
aS'Huawei'
p195
aS'DoCoMo'
p196
aS'Android'
p197
aS'Toshiba'
p198
aS'Vodafone'
p199
aS'LG'
p200
aS'SonyEricsson'
p201
aS'Verizon'
p202
aS'T-Mobile'
p203
aS'Motorola'
p204
aS'Alcatel'
p205
aS'SmartQ'
p206
aS'Samsung'
p207
aS'ZTE'
p208
aS'Logic_PD'
p209
aS'Sharp'
p210
aS'Archos'
p211
aS'Google'
p212
aS'HTC'
p213
aS'Apple'
p214
aS'Nextbook'
p215
aS'Acer'
p216
aS'Pantech'
p217
aS'Zenithink'
p218
asS'2.0'
p219
(lp220
S'Motorola'
p221
aS'Barnes_and_Noble'
p222
aS'Apple'
p223
aS'Verizon'
p224
aS'Amazon'
p225
aS'Android'
p226
asS'2.6'
p227
(lp228
S'Amazon'
p229
aS'Motorola'
p230
asS'3.8'
p231
(lp232
S'RIM'
p233
asS'1.1.4'
p234
(lp235
S'Apple'
p236
asS'5.0'
p237
(lp238
S'BenQ'
p239
aS'HTC'
p240
aS'i-mate'
p241
aS'Samsung'
p242
aS'Dopod'
p243
aS'RIM'
p244
aS'O2'
p245
asS'8.0'
p246
(lp247
S'Nokia'
p248
asS'5.2'
p249
(lp250
S'HTC'
p251
asS'4.6'
p252
(lp253
S'RIM'
p254
asS'4.1'
p255
(lp256
S'RIM'
p257
aS'Apple'
p258
aS'Samsung'
p259
asS'4.0'
p260
(lp261
S'RIM'
p262
aS'Apple'
p263
asS'4.3'
p264
(lp265
S'RIM'
p266
aS'Apple'
p267
asS'4.2'
p268
(lp269
S'RIM'
p270
aS'Apple'
p271
asS'1.3'
p272
(lp273
S'Palm'
p274
asS'2.0.2'
p275
(lp276
S'Apple'
p277
asS'3.3'
p278
(lp279
S'RIM'
p280
asS'8.1'
p281
(lp282
S'Nokia'
p283
asS'1'
p284
(lp285
S'RIM'
p286
asS'2.6.10'
p287
(lp288
S'Amazon'
p289
aS'Motorola'
p290
asS'2'
p291
(lp292
S'RIM'
p293
asS'5'
p294
(lp295
S'Generic'
p296
aS'Grundig'
p297
aS'HP'
p298
aS'Dopod'
p299
aS'Voxtel'
p300
aS'Huawei'
p301
aS'UTStarcom'
p302
aS'Mitac'
p303
aS'Orange'
p304
aS'Toshiba'
p305
aS'O2'
p306
aS'Vodafone'
p307
aS'LG'
p308
aS'SonyEricsson'
p309
aS'T-Mobile'
p310
aS'RIM'
p311
aS'Qtek'
p312
aS'Amoi'
p313
aS'Motorola'
p314
aS'Samsung'
p315
aS'Gigabyte'
p316
aS'Lenovo'
p317
aS'Asus'
p318
aS'HTC'
p319
aS'i-mate'
p320
aS'Palm'
p321
aS'ETEN'
p322
aS'Cingular'
p323
aS'Sharp'
p324
aS'Sprint'
p325
asS'7'
p326
(lp327
S'LG'
p328
aS'HTC'
p329
aS'Samsung'
p330
aS'Generic'
p331
aS'Asus'
p332
aS'Microsoft'
p333
asS'6'
p334
(lp335
S'Generic'
p336
aS'HP'
p337
aS'Dopod'
p338
aS'UTStarcom'
p339
aS'Orange'
p340
aS'Toshiba'
p341
aS'Emobile'
p342
aS'O2'
p343
aS'Vodafone'
p344
aS'LG'
p345
aS'Verizon'
p346
aS'PhoneOne'
p347
aS'T-Mobile'
p348
aS'Motorola'
p349
aS'Samsung'
p350
aS'Gigabyte'
p351
aS'Lenovo'
p352
aS'Asus'
p353
aS'HTC'
p354
aS'i-mate'
p355
aS'Palm'
p356
aS'ETEN'
p357
aS'Pantech'
p358
aS'Techfaith'
p359
asS'9.4'
p360
(lp361
S'Nokia'
p362
aS'SonyEricsson'
p363
aS'Samsung'
p364
asS'1.1.5'
p365
(lp366
S'Apple'
p367
asS'2003_SE'
p368
(lp369
S'Motorola'
p370
aS'HTC'
p371
aS'Siemens'
p372
aS'Generic'
p373
aS'HP'
p374
aS'Samsung'
p375
aS'T-Mobile'
p376
aS'Sagem'
p377
aS'Audiovox'
p378
aS'i-mate'
p379
aS'Asus'
p380
aS'Orange'
p381
aS'Sprint'
p382
aS'Qtek'
p383
asS'9.1'
p384
(lp385
S'Nokia'
p386
aS'SonyEricsson'
p387
aS'Samsung'
p388
asS'9.2'
p389
(lp390
S'Nokia'
p391
aS'Motorola'
p392
aS'LG'
p393
aS'Samsung'
p394
asS'9.3'
p395
(lp396
S'LG'
p397
aS'Vertu'
p398
aS'Nokia'
p399
asS'2.2.2'
p400
(lp401
S'LG'
p402
aS'Google'
p403
aS'HTC'
p404
asS'4.5'
p405
(lp406
S'RIM'
p407
asS'2.0.1'
p408
(lp409
S'Motorola'
p410
aS'Apple'
p411
asS'2.3.3'
p412
(lp413
S'Samsung'
p414
asS'1.4.5'
p415
(lp416
S'Palm'
p417
asS'6.8'
p418
(lp419
S'HTC'
p420
asS'4.3.1'
p421
(lp422
S'Apple'
p423
asS'2.4'
p424
(lp425
S'Android'
p426
aS'Motorola'
p427
aS'Samsung'
p428
asS'N/A'
p429
(lp430
S'GHT'
p431
aS'Infineon'
p432
aS'LGUPlus'
p433
aS'Usha_Lexus'
p434
aS'Dai_Telecom'
p435
aS'Emblaze'
p436
aS'CoralWeb'
p437
aS'KDDI'
p438
aS'Helio'
p439
aS'Ezze'
p440
aS'Desktop'
p441
aS'Access'
p442
aS'Huawei'
p443
aS'TTPCom'
p444
aS'Morange'
p445
aS'Smile'
p446
aS'O2'
p447
aS'Vodafone'
p448
aS'RT'
p449
aS'Cricket'
p450
aS'SonyEricsson'
p451
aS'Uriver'
p452
aS'KDDI-Sanyo'
p453
aS'ARCELIK'
p454
aS'Zonda'
p455
aS'Siemens'
p456
aS'Airness'
p457
aS'RIM'
p458
aS'Lexibook'
p459
aS'SPC'
p460
aS'Spice'
p461
aS'Nexian'
p462
aS'UTStarcom'
p463
aS'Novarra'
p464
aS'Micromax'
p465
aS'MOBISTEL'
p466
aS'BEKO'
p467
aS'SlobTrot_Software'
p468
aS'HTIL'
p469
aS'RoverPC'
p470
aS'KDDI-SonyEricsson'
p471
aS'Vertu'
p472
aS'Aiko'
p473
aS'Ahong'
p474
aS'Asus'
p475
aS'InfoSonics'
p476
aS'WellcoM'
p477
aS'i-mobile'
p478
aS'Danger'
p479
aS'Venera'
p480
aS'CheckCom'
p481
aS'Hitachi'
p482
aS'Newgen'
p483
aS'Sendo'
p484
aS'WAPUniverse'
p485
aS'MyPhone'
p486
aS'Skybee'
p487
aS'Panda'
p488
aS'Maxon'
p489
aS'BenQ'
p490
aS'Nem'
p491
aS'Lemon'
p492
aS'Sonim'
p493
aS'Generic'
p494
aS'Grundig'
p495
aS'KDDI-Toshiba'
p496
aS'Konka'
p497
aS'Lenovo'
p498
aS'EDL'
p499
aS'ModeLabs'
p500
aS'Orange'
p501
aS'Capitel'
p502
aS'Tianyu'
p503
aS'.mobi'
p504
aS'PCD'
p505
aS'Modu'
p506
aS'QMobile'
p507
aS'W3C'
p508
aS'Reporo'
p509
aS'Utec'
p510
aS'LXE'
p511
aS'T-Mobile'
p512
aS'TCL'
p513
aS'Wapsilon'
p514
aS'MOMO_Design'
p515
aS'Elite'
p516
aS'Vodafone_ZTE'
p517
aS'Sony'
p518
aS'Mitsubishi'
p519
aS'Raks'
p520
aS'Hummer'
p521
aS'Amoi'
p522
aS'Motorola'
p523
aS'KPT'
p524
aS'Samsung'
p525
aS'Malata'
p526
aS'B-Mobile'
p527
aS'Robot'
p528
aS'Sharp'
p529
aS'ZT'
p530
aS'Skyfire'
p531
aS'Microsoft'
p532
aS'Doris'
p533
aS'Bleu'
p534
aS'LCT'
p535
aS'HEDY'
p536
aS'Ron'
p537
aS'Tecno'
p538
aS'Openwave'
p539
aS'Tinno'
p540
aS'Palm'
p541
aS'Sunrise'
p542
aS'Acer'
p543
aS'Lexus'
p544
aS'Ericsson'
p545
aS'Pirelli-Arcor'
p546
aS'Palm_3'
p547
aS'Rover'
p548
aS'Vibo'
p549
aS'Nokia'
p550
aS'Coolpad'
p551
aS'Telecom_Italia'
p552
aS'NEC'
p553
aS'Yas'
p554
aS'UKING'
p555
aS'Hisense'
p556
aS'UCWEB'
p557
aS'Compal'
p558
aS'SAMART'
p559
aS'VK_Mobile'
p560
aS'Hei'
p561
aS'Haier'
p562
aS'INNO'
p563
aS'SmartTrust'
p564
aS'Klondike'
p565
aS'Psion'
p566
aS'Audiovox'
p567
aS'EZIO'
p568
aS'Toshiba'
p569
aS'WinWAP_Technologies'
p570
aS'SavaJe'
p571
aS'NGM'
p572
aS'Kejian'
p573
aS'iKoMo'
p574
aS'Bird'
p575
aS'Daxian'
p576
aS'Fly'
p577
aS'INQ_Mobile'
p578
aS'Poseidon'
p579
aS'Elson'
p580
aS'Karbonn'
p581
aS'Sanyo'
p582
aS'AlphaCell_Wireless'
p583
ag429
aS'Toplux'
p584
aS'KDDI-Kyocera'
p585
aS'Tranxcode'
p586
aS'Ericy'
p587
aS'Enteos'
p588
aS'HTC'
p589
aS'Opera'
p590
aS'Kozi'
p591
aS'K-Touch'
p592
aS'VeryKool'
p593
aS'XJXN'
p594
aS'Onda'
p595
aS'eTouch'
p596
aS'Vitelcom'
p597
aS'Itelco'
p598
aS'CDM'
p599
aS'Gionee'
p600
aS'Gradiente'
p601
aS'Medion'
p602
aS'tvCompass'
p603
aS'TiPhone'
p604
aS'Skyworth'
p605
aS'Dmobo'
p606
aS'Pantech'
p607
aS'Vacom'
p608
aS'Ubiquam'
p609
aS'Panasonic'
p610
aS'Avvio'
p611
aS'BenQ-Siemens'
p612
aS'Mio'
p613
aS'Kisen'
p614
aS'Optimay'
p615
aS'Innostream'
p616
aS'Voxtel'
p617
aS'Nintendo'
p618
aS'DoCoMo'
p619
aS'Asmobile'
p620
aS'Fitel'
p621
aS'SAMART_i-mobile'
p622
aS'QCI'
p623
aS'Blue_Coat'
p624
aS'LG'
p625
aS'Videocon'
p626
aS'VERZIOWORLD'
p627
aS'Telit'
p628
aS'Dicam'
p629
aS'PhoneOne'
p630
aS'Apple'
p631
aS'KCM'
p632
aS'ZTE'
p633
aS'LT'
p634
aS'BayMobile'
p635
aS'DBTEL'
p636
aS'Uniscope'
p637
aS'Bellwave'
p638
aS'Softbank'
p639
aS'Polaris'
p640
aS'TINNO'
p641
aS'MAUI-based_Generic'
p642
aS'Philips'
p643
aS'Wonu'
p644
aS'Alcatel'
p645
aS'AI'
p646
aS'IAC_OKWAP'
p647
aS'Mobell'
p648
aS'Unistar'
p649
aS'Lobster'
p650
aS'IM'
p651
aS'Miracle'
p652
aS'Lynx'
p653
aS'Becker'
p654
aS'Wapamp'
p655
aS'Sagem'
p656
aS'IXI'
p657
aS'Google'
p658
aS'CECT'
p659
aS'Longcos'
p660
aS'Cking'
p661
aS'Zen'
p662
aS'Kyocera'
p663
aS'Skyspring'
p664
aS'Modottel'
p665
aS'Tel.Me.'
p666
aS'M3_Gate'
p667
asS'4.0.2'
p668
(lp669
S'Apple'
p670
asS'1.3.5'
p671
(lp672
S'Palm'
p673
asS'1.1'
p674
(lp675
S'Palm'
p676
aS'Android'
p677
aS'HTC'
p678
aS'T-Mobile'
p679
asS'3.0.1'
p680
(lp681
S'Apple'
p682
asS'4.1.0'
p683
(lp684
S'RIM'
p685
asS'1.0'
p686
(lp687
S'Motorola'
p688
aS'HTC'
p689
aS'Apple'
p690
aS'Samsung'
p691
aS'T-Mobile'
p692
aS'Palm'
p693
asS'Pocket_PC_2002'
p694
(lp695
S'Neonode'
p696
aS'Motorola'
p697
aS'HTC'
p698
aS'Airis'
p699
aS'HP'
p700
aS'Siemens'
p701
aS'Generic_Windows'
p702
aS'Orange'
p703
asS'2.1.1'
p704
(lp705
S'Apple'
p706
asS'4.6.1'
p707
(lp708
S'RIM'
p709
asS'1.2.9'
p710
(lp711
S'Palm'
p712
asS'4.2.2'
p713
(lp714
S'RIM'
p715
asS'4.0.1'
p716
(lp717
S'Apple'
p718
asS'3.1'
p719
(lp720
S'Huawei'
p721
aS'Apple'
p722
asS'7.0'
p723
(lp724
S'Nokia'
p725
aS'Samsung'
p726
aS'Panasonic'
p727
asS'2003'
p728
(lp729
S'BenQ'
p730
aS'AnexTek'
p731
aS'Motorola'
p732
aS'HTC'
p733
aS'SonyEricsson'
p734
aS'Windows_Mobile'
p735
aS'Generic'
p736
aS'HP'
p737
aS'Dopod'
p738
aS'ZTE'
p739
aS'Dallab'
p740
aS'Mitac'
p741
aS'Orange'
p742
aS'O2'
p743
aS'Qtek'
p744
asS'4.2.1'
p745
(lp746
S'Apple'
p747
asS'4.7.1'
p748
(lp749
S'RIM'
p750
asS'3.2.1'
p751
(lp752
S'RIM'
p753
aS'Apple'
p754
asS'1.4.1'
p755
(lp756
S'Palm'
p757
asS'5.2.8'
p758
(lp759
S'Palm'
p760
asS'3.2'
p761
(lp762
S'RIM'
p763
aS'Apple'
p764
asS'2.6.22'
p765
(lp766
S'Amazon'
p767
asS'4.7'
p768
(lp769
S'RIM'
p770
as.
